target datalayout = "e-m:e-p270:32:32-p271:32:32-p272:64:64-i64:64-i128:128-f80:128-n8:16:32:64-S128"
target triple = "x86_64-pc-linux-gnu"

%struct.dmg_mish_with_stripes = type { ptr, ptr, ptr }
%struct.dmg_mish_block = type <{ i32, i32, i64, i64, i64, i32, i32, [24 x i8], [34 x i32], i32 }>

@__const.dmg_decode_mish.mish_magic = private unnamed_addr constant [4 x i8] c"mish", align 1
@.str.33 = private unnamed_addr constant [58 x i8] c"dmg_decode_mish: failed base64 decoding on mish block %u\0A\00", align 1
@.str.34 = private unnamed_addr constant [58 x i8] c"dmg_decode_mish: block %u too short for valid mish block\0A\00", align 1
@.str.35 = private unnamed_addr constant [52 x i8] c"dmg_decode_mish: block %u does not have mish magic\0A\00", align 1
@.str.36 = private unnamed_addr constant [88 x i8] c"dmg_decode_mish: startSector = %lu sectorCount = %lu dataOffset = %lu stripeCount = %u\0A\00", align 1
@.str.37 = private unnamed_addr constant [42 x i8] c"dmg_decode_mish: mish block %u too small\0A\00", align 1
@.str.38 = private unnamed_addr constant [63 x i8] c"dmg_decode_mish: mish block %u bigger than needed, continuing\0A\00", align 1

; Function Attrs: nounwind uwtable
define internal i32 @dmg_decode_mish(ptr noundef %0, ptr noundef %1, ptr noundef %2, ptr noundef %3) #0 {
  %5 = alloca i32, align 4
  %6 = alloca ptr, align 8
  %7 = alloca ptr, align 8
  %8 = alloca ptr, align 8
  %9 = alloca ptr, align 8
  %10 = alloca i64, align 8
  %11 = alloca i64, align 8
  %12 = alloca i64, align 8
  %13 = alloca ptr, align 8
  %14 = alloca [4 x i8], align 1
  store ptr %0, ptr %6, align 8
  store ptr %1, ptr %7, align 8
  store ptr %2, ptr %8, align 8
  store ptr %3, ptr %9, align 8
  call void @llvm.memcpy.p0.p0.i64(ptr align 1 %14, ptr align 1 @__const.dmg_decode_mish.mish_magic, i64 4, i1 false)
  %15 = load ptr, ptr %7, align 8
  %16 = load i32, ptr %15, align 4
  %17 = add i32 %16, 1
  store i32 %17, ptr %15, align 4
  %18 = load ptr, ptr %8, align 8
  %19 = call i64 @strlen(ptr noundef %18) #10
  store i64 %19, ptr %10, align 8
  %20 = load i64, ptr %10, align 8
  %21 = mul i64 3, %20
  %22 = udiv i64 %21, 4
  %23 = add i64 %22, 4
  store i64 %23, ptr %11, align 8
  %24 = load i64, ptr %11, align 8
  %25 = call ptr @cli_max_malloc(i64 noundef %24)
  store ptr %25, ptr %13, align 8
  %26 = load ptr, ptr %13, align 8
  %27 = icmp ne ptr %26, null
  br i1 %27, label %29, label %28

28:                                               ; preds = %4
  store i32 20, ptr %5, align 4
  br label %353

29:                                               ; preds = %4
  %30 = load ptr, ptr %8, align 8
  %31 = load i64, ptr %10, align 8
  %32 = load ptr, ptr %13, align 8
  %33 = load i64, ptr %11, align 8
  %34 = sub i64 %33, 1
  %35 = call i32 @sf_base64decode(ptr noundef %30, i64 noundef %31, ptr noundef %32, i64 noundef %34, ptr noundef %12)
  %36 = icmp ne i32 %35, 0
  br i1 %36, label %37, label %41

37:                                               ; preds = %29
  %38 = load ptr, ptr %7, align 8
  %39 = load i32, ptr %38, align 4
  call void (ptr, ...) @cli_dbgmsg(ptr noundef @.str.33, i32 noundef %39)
  %40 = load ptr, ptr %13, align 8
  call void @free(ptr noundef %40) #8
  store i32 26, ptr %5, align 4
  br label %353

41:                                               ; preds = %29
  %42 = load i64, ptr %12, align 8
  %43 = icmp ult i64 %42, 204
  br i1 %43, label %44, label %48

44:                                               ; preds = %41
  %45 = load ptr, ptr %7, align 8
  %46 = load i32, ptr %45, align 4
  call void (ptr, ...) @cli_dbgmsg(ptr noundef @.str.34, i32 noundef %46)
  %47 = load ptr, ptr %13, align 8
  call void @free(ptr noundef %47) #8
  store i32 26, ptr %5, align 4
  br label %353

48:                                               ; preds = %41
  %49 = load ptr, ptr %13, align 8
  %50 = getelementptr inbounds [4 x i8], ptr %14, i64 0, i64 0
  %51 = call i32 @memcmp(ptr noundef %49, ptr noundef %50, i64 noundef 4) #10
  %52 = icmp ne i32 %51, 0
  br i1 %52, label %53, label %57

53:                                               ; preds = %48
  %54 = load ptr, ptr %7, align 8
  %55 = load i32, ptr %54, align 4
  call void (ptr, ...) @cli_dbgmsg(ptr noundef @.str.35, i32 noundef %55)
  %56 = load ptr, ptr %13, align 8
  call void @free(ptr noundef %56) #8
  store i32 26, ptr %5, align 4
  br label %353

57:                                               ; preds = %48
  %58 = load ptr, ptr %13, align 8
  %59 = load ptr, ptr %9, align 8
  %60 = getelementptr inbounds %struct.dmg_mish_with_stripes, ptr %59, i32 0, i32 0
  store ptr %58, ptr %60, align 8
  %61 = load ptr, ptr %9, align 8
  %62 = getelementptr inbounds %struct.dmg_mish_with_stripes, ptr %61, i32 0, i32 0
  %63 = load ptr, ptr %62, align 8
  %64 = getelementptr inbounds %struct.dmg_mish_block, ptr %63, i32 0, i32 2
  %65 = load i64, ptr %64, align 1
  %66 = and i64 %65, 255
  %67 = shl i64 %66, 56
  %68 = load ptr, ptr %9, align 8
  %69 = getelementptr inbounds %struct.dmg_mish_with_stripes, ptr %68, i32 0, i32 0
  %70 = load ptr, ptr %69, align 8
  %71 = getelementptr inbounds %struct.dmg_mish_block, ptr %70, i32 0, i32 2
  %72 = load i64, ptr %71, align 1
  %73 = and i64 %72, 65280
  %74 = shl i64 %73, 40
  %75 = or i64 %67, %74
  %76 = load ptr, ptr %9, align 8
  %77 = getelementptr inbounds %struct.dmg_mish_with_stripes, ptr %76, i32 0, i32 0
  %78 = load ptr, ptr %77, align 8
  %79 = getelementptr inbounds %struct.dmg_mish_block, ptr %78, i32 0, i32 2
  %80 = load i64, ptr %79, align 1
  %81 = and i64 %80, 16711680
  %82 = shl i64 %81, 24
  %83 = or i64 %75, %82
  %84 = load ptr, ptr %9, align 8
  %85 = getelementptr inbounds %struct.dmg_mish_with_stripes, ptr %84, i32 0, i32 0
  %86 = load ptr, ptr %85, align 8
  %87 = getelementptr inbounds %struct.dmg_mish_block, ptr %86, i32 0, i32 2
  %88 = load i64, ptr %87, align 1
  %89 = and i64 %88, 4278190080
  %90 = shl i64 %89, 8
  %91 = or i64 %83, %90
  %92 = load ptr, ptr %9, align 8
  %93 = getelementptr inbounds %struct.dmg_mish_with_stripes, ptr %92, i32 0, i32 0
  %94 = load ptr, ptr %93, align 8
  %95 = getelementptr inbounds %struct.dmg_mish_block, ptr %94, i32 0, i32 2
  %96 = load i64, ptr %95, align 1
  %97 = and i64 %96, 1095216660480
  %98 = lshr i64 %97, 8
  %99 = or i64 %91, %98
  %100 = load ptr, ptr %9, align 8
  %101 = getelementptr inbounds %struct.dmg_mish_with_stripes, ptr %100, i32 0, i32 0
  %102 = load ptr, ptr %101, align 8
  %103 = getelementptr inbounds %struct.dmg_mish_block, ptr %102, i32 0, i32 2
  %104 = load i64, ptr %103, align 1
  %105 = and i64 %104, 280375465082880
  %106 = lshr i64 %105, 24
  %107 = or i64 %99, %106
  %108 = load ptr, ptr %9, align 8
  %109 = getelementptr inbounds %struct.dmg_mish_with_stripes, ptr %108, i32 0, i32 0
  %110 = load ptr, ptr %109, align 8
  %111 = getelementptr inbounds %struct.dmg_mish_block, ptr %110, i32 0, i32 2
  %112 = load i64, ptr %111, align 1
  %113 = and i64 %112, 71776119061217280
  %114 = lshr i64 %113, 40
  %115 = or i64 %107, %114
  %116 = load ptr, ptr %9, align 8
  %117 = getelementptr inbounds %struct.dmg_mish_with_stripes, ptr %116, i32 0, i32 0
  %118 = load ptr, ptr %117, align 8
  %119 = getelementptr inbounds %struct.dmg_mish_block, ptr %118, i32 0, i32 2
  %120 = load i64, ptr %119, align 1
  %121 = and i64 %120, -72057594037927936
  %122 = lshr i64 %121, 56
  %123 = or i64 %115, %122
  %124 = load ptr, ptr %9, align 8
  %125 = getelementptr inbounds %struct.dmg_mish_with_stripes, ptr %124, i32 0, i32 0
  %126 = load ptr, ptr %125, align 8
  %127 = getelementptr inbounds %struct.dmg_mish_block, ptr %126, i32 0, i32 2
  store i64 %123, ptr %127, align 1
  %128 = load ptr, ptr %9, align 8
  %129 = getelementptr inbounds %struct.dmg_mish_with_stripes, ptr %128, i32 0, i32 0
  %130 = load ptr, ptr %129, align 8
  %131 = getelementptr inbounds %struct.dmg_mish_block, ptr %130, i32 0, i32 3
  %132 = load i64, ptr %131, align 1
  %133 = and i64 %132, 255
  %134 = shl i64 %133, 56
  %135 = load ptr, ptr %9, align 8
  %136 = getelementptr inbounds %struct.dmg_mish_with_stripes, ptr %135, i32 0, i32 0
  %137 = load ptr, ptr %136, align 8
  %138 = getelementptr inbounds %struct.dmg_mish_block, ptr %137, i32 0, i32 3
  %139 = load i64, ptr %138, align 1
  %140 = and i64 %139, 65280
  %141 = shl i64 %140, 40
  %142 = or i64 %134, %141
  %143 = load ptr, ptr %9, align 8
  %144 = getelementptr inbounds %struct.dmg_mish_with_stripes, ptr %143, i32 0, i32 0
  %145 = load ptr, ptr %144, align 8
  %146 = getelementptr inbounds %struct.dmg_mish_block, ptr %145, i32 0, i32 3
  %147 = load i64, ptr %146, align 1
  %148 = and i64 %147, 16711680
  %149 = shl i64 %148, 24
  %150 = or i64 %142, %149
  %151 = load ptr, ptr %9, align 8
  %152 = getelementptr inbounds %struct.dmg_mish_with_stripes, ptr %151, i32 0, i32 0
  %153 = load ptr, ptr %152, align 8
  %154 = getelementptr inbounds %struct.dmg_mish_block, ptr %153, i32 0, i32 3
  %155 = load i64, ptr %154, align 1
  %156 = and i64 %155, 4278190080
  %157 = shl i64 %156, 8
  %158 = or i64 %150, %157
  %159 = load ptr, ptr %9, align 8
  %160 = getelementptr inbounds %struct.dmg_mish_with_stripes, ptr %159, i32 0, i32 0
  %161 = load ptr, ptr %160, align 8
  %162 = getelementptr inbounds %struct.dmg_mish_block, ptr %161, i32 0, i32 3
  %163 = load i64, ptr %162, align 1
  %164 = and i64 %163, 1095216660480
  %165 = lshr i64 %164, 8
  %166 = or i64 %158, %165
  %167 = load ptr, ptr %9, align 8
  %168 = getelementptr inbounds %struct.dmg_mish_with_stripes, ptr %167, i32 0, i32 0
  %169 = load ptr, ptr %168, align 8
  %170 = getelementptr inbounds %struct.dmg_mish_block, ptr %169, i32 0, i32 3
  %171 = load i64, ptr %170, align 1
  %172 = and i64 %171, 280375465082880
  %173 = lshr i64 %172, 24
  %174 = or i64 %166, %173
  %175 = load ptr, ptr %9, align 8
  %176 = getelementptr inbounds %struct.dmg_mish_with_stripes, ptr %175, i32 0, i32 0
  %177 = load ptr, ptr %176, align 8
  %178 = getelementptr inbounds %struct.dmg_mish_block, ptr %177, i32 0, i32 3
  %179 = load i64, ptr %178, align 1
  %180 = and i64 %179, 71776119061217280
  %181 = lshr i64 %180, 40
  %182 = or i64 %174, %181
  %183 = load ptr, ptr %9, align 8
  %184 = getelementptr inbounds %struct.dmg_mish_with_stripes, ptr %183, i32 0, i32 0
  %185 = load ptr, ptr %184, align 8
  %186 = getelementptr inbounds %struct.dmg_mish_block, ptr %185, i32 0, i32 3
  %187 = load i64, ptr %186, align 1
  %188 = and i64 %187, -72057594037927936
  %189 = lshr i64 %188, 56
  %190 = or i64 %182, %189
  %191 = load ptr, ptr %9, align 8
  %192 = getelementptr inbounds %struct.dmg_mish_with_stripes, ptr %191, i32 0, i32 0
  %193 = load ptr, ptr %192, align 8
  %194 = getelementptr inbounds %struct.dmg_mish_block, ptr %193, i32 0, i32 3
  store i64 %190, ptr %194, align 1
  %195 = load ptr, ptr %9, align 8
  %196 = getelementptr inbounds %struct.dmg_mish_with_stripes, ptr %195, i32 0, i32 0
  %197 = load ptr, ptr %196, align 8
  %198 = getelementptr inbounds %struct.dmg_mish_block, ptr %197, i32 0, i32 4
  %199 = load i64, ptr %198, align 1
  %200 = and i64 %199, 255
  %201 = shl i64 %200, 56
  %202 = load ptr, ptr %9, align 8
  %203 = getelementptr inbounds %struct.dmg_mish_with_stripes, ptr %202, i32 0, i32 0
  %204 = load ptr, ptr %203, align 8
  %205 = getelementptr inbounds %struct.dmg_mish_block, ptr %204, i32 0, i32 4
  %206 = load i64, ptr %205, align 1
  %207 = and i64 %206, 65280
  %208 = shl i64 %207, 40
  %209 = or i64 %201, %208
  %210 = load ptr, ptr %9, align 8
  %211 = getelementptr inbounds %struct.dmg_mish_with_stripes, ptr %210, i32 0, i32 0
  %212 = load ptr, ptr %211, align 8
  %213 = getelementptr inbounds %struct.dmg_mish_block, ptr %212, i32 0, i32 4
  %214 = load i64, ptr %213, align 1
  %215 = and i64 %214, 16711680
  %216 = shl i64 %215, 24
  %217 = or i64 %209, %216
  %218 = load ptr, ptr %9, align 8
  %219 = getelementptr inbounds %struct.dmg_mish_with_stripes, ptr %218, i32 0, i32 0
  %220 = load ptr, ptr %219, align 8
  %221 = getelementptr inbounds %struct.dmg_mish_block, ptr %220, i32 0, i32 4
  %222 = load i64, ptr %221, align 1
  %223 = and i64 %222, 4278190080
  %224 = shl i64 %223, 8
  %225 = or i64 %217, %224
  %226 = load ptr, ptr %9, align 8
  %227 = getelementptr inbounds %struct.dmg_mish_with_stripes, ptr %226, i32 0, i32 0
  %228 = load ptr, ptr %227, align 8
  %229 = getelementptr inbounds %struct.dmg_mish_block, ptr %228, i32 0, i32 4
  %230 = load i64, ptr %229, align 1
  %231 = and i64 %230, 1095216660480
  %232 = lshr i64 %231, 8
  %233 = or i64 %225, %232
  %234 = load ptr, ptr %9, align 8
  %235 = getelementptr inbounds %struct.dmg_mish_with_stripes, ptr %234, i32 0, i32 0
  %236 = load ptr, ptr %235, align 8
  %237 = getelementptr inbounds %struct.dmg_mish_block, ptr %236, i32 0, i32 4
  %238 = load i64, ptr %237, align 1
  %239 = and i64 %238, 280375465082880
  %240 = lshr i64 %239, 24
  %241 = or i64 %233, %240
  %242 = load ptr, ptr %9, align 8
  %243 = getelementptr inbounds %struct.dmg_mish_with_stripes, ptr %242, i32 0, i32 0
  %244 = load ptr, ptr %243, align 8
  %245 = getelementptr inbounds %struct.dmg_mish_block, ptr %244, i32 0, i32 4
  %246 = load i64, ptr %245, align 1
  %247 = and i64 %246, 71776119061217280
  %248 = lshr i64 %247, 40
  %249 = or i64 %241, %248
  %250 = load ptr, ptr %9, align 8
  %251 = getelementptr inbounds %struct.dmg_mish_with_stripes, ptr %250, i32 0, i32 0
  %252 = load ptr, ptr %251, align 8
  %253 = getelementptr inbounds %struct.dmg_mish_block, ptr %252, i32 0, i32 4
  %254 = load i64, ptr %253, align 1
  %255 = and i64 %254, -72057594037927936
  %256 = lshr i64 %255, 56
  %257 = or i64 %249, %256
  %258 = load ptr, ptr %9, align 8
  %259 = getelementptr inbounds %struct.dmg_mish_with_stripes, ptr %258, i32 0, i32 0
  %260 = load ptr, ptr %259, align 8
  %261 = getelementptr inbounds %struct.dmg_mish_block, ptr %260, i32 0, i32 4
  store i64 %257, ptr %261, align 1
  %262 = load ptr, ptr %9, align 8
  %263 = getelementptr inbounds %struct.dmg_mish_with_stripes, ptr %262, i32 0, i32 0
  %264 = load ptr, ptr %263, align 8
  %265 = getelementptr inbounds %struct.dmg_mish_block, ptr %264, i32 0, i32 9
  %266 = load i32, ptr %265, align 1
  %267 = and i32 %266, 255
  %268 = shl i32 %267, 24
  %269 = load ptr, ptr %9, align 8
  %270 = getelementptr inbounds %struct.dmg_mish_with_stripes, ptr %269, i32 0, i32 0
  %271 = load ptr, ptr %270, align 8
  %272 = getelementptr inbounds %struct.dmg_mish_block, ptr %271, i32 0, i32 9
  %273 = load i32, ptr %272, align 1
  %274 = and i32 %273, 65280
  %275 = shl i32 %274, 8
  %276 = or i32 %268, %275
  %277 = load ptr, ptr %9, align 8
  %278 = getelementptr inbounds %struct.dmg_mish_with_stripes, ptr %277, i32 0, i32 0
  %279 = load ptr, ptr %278, align 8
  %280 = getelementptr inbounds %struct.dmg_mish_block, ptr %279, i32 0, i32 9
  %281 = load i32, ptr %280, align 1
  %282 = and i32 %281, 16711680
  %283 = lshr i32 %282, 8
  %284 = or i32 %276, %283
  %285 = load ptr, ptr %9, align 8
  %286 = getelementptr inbounds %struct.dmg_mish_with_stripes, ptr %285, i32 0, i32 0
  %287 = load ptr, ptr %286, align 8
  %288 = getelementptr inbounds %struct.dmg_mish_block, ptr %287, i32 0, i32 9
  %289 = load i32, ptr %288, align 1
  %290 = and i32 %289, -16777216
  %291 = lshr i32 %290, 24
  %292 = or i32 %284, %291
  %293 = load ptr, ptr %9, align 8
  %294 = getelementptr inbounds %struct.dmg_mish_with_stripes, ptr %293, i32 0, i32 0
  %295 = load ptr, ptr %294, align 8
  %296 = getelementptr inbounds %struct.dmg_mish_block, ptr %295, i32 0, i32 9
  store i32 %292, ptr %296, align 1
  %297 = load ptr, ptr %9, align 8
  %298 = getelementptr inbounds %struct.dmg_mish_with_stripes, ptr %297, i32 0, i32 0
  %299 = load ptr, ptr %298, align 8
  %300 = getelementptr inbounds %struct.dmg_mish_block, ptr %299, i32 0, i32 2
  %301 = load i64, ptr %300, align 1
  %302 = load ptr, ptr %9, align 8
  %303 = getelementptr inbounds %struct.dmg_mish_with_stripes, ptr %302, i32 0, i32 0
  %304 = load ptr, ptr %303, align 8
  %305 = getelementptr inbounds %struct.dmg_mish_block, ptr %304, i32 0, i32 3
  %306 = load i64, ptr %305, align 1
  %307 = load ptr, ptr %9, align 8
  %308 = getelementptr inbounds %struct.dmg_mish_with_stripes, ptr %307, i32 0, i32 0
  %309 = load ptr, ptr %308, align 8
  %310 = getelementptr inbounds %struct.dmg_mish_block, ptr %309, i32 0, i32 4
  %311 = load i64, ptr %310, align 1
  %312 = load ptr, ptr %9, align 8
  %313 = getelementptr inbounds %struct.dmg_mish_with_stripes, ptr %312, i32 0, i32 0
  %314 = load ptr, ptr %313, align 8
  %315 = getelementptr inbounds %struct.dmg_mish_block, ptr %314, i32 0, i32 9
  %316 = load i32, ptr %315, align 1
  call void (ptr, ...) @cli_dbgmsg(ptr noundef @.str.36, i64 noundef %301, i64 noundef %306, i64 noundef %311, i32 noundef %316)
  %317 = load i64, ptr %12, align 8
  %318 = load ptr, ptr %9, align 8
  %319 = getelementptr inbounds %struct.dmg_mish_with_stripes, ptr %318, i32 0, i32 0
  %320 = load ptr, ptr %319, align 8
  %321 = getelementptr inbounds %struct.dmg_mish_block, ptr %320, i32 0, i32 9
  %322 = load i32, ptr %321, align 1
  %323 = zext i32 %322 to i64
  %324 = mul i64 %323, 40
  %325 = add i64 204, %324
  %326 = icmp ult i64 %317, %325
  br i1 %326, label %327, label %333

327:                                              ; preds = %57
  %328 = load ptr, ptr %7, align 8
  %329 = load i32, ptr %328, align 4
  call void (ptr, ...) @cli_dbgmsg(ptr noundef @.str.37, i32 noundef %329)
  %330 = load ptr, ptr %13, align 8
  call void @free(ptr noundef %330) #8
  %331 = load ptr, ptr %9, align 8
  %332 = getelementptr inbounds %struct.dmg_mish_with_stripes, ptr %331, i32 0, i32 0
  store ptr null, ptr %332, align 8
  store i32 26, ptr %5, align 4
  br label %353

333:                                              ; preds = %57
  %334 = load i64, ptr %12, align 8
  %335 = load ptr, ptr %9, align 8
  %336 = getelementptr inbounds %struct.dmg_mish_with_stripes, ptr %335, i32 0, i32 0
  %337 = load ptr, ptr %336, align 8
  %338 = getelementptr inbounds %struct.dmg_mish_block, ptr %337, i32 0, i32 9
  %339 = load i32, ptr %338, align 1
  %340 = zext i32 %339 to i64
  %341 = mul i64 %340, 40
  %342 = add i64 204, %341
  %343 = icmp ugt i64 %334, %342
  br i1 %343, label %344, label %347

344:                                              ; preds = %333
  %345 = load ptr, ptr %7, align 8
  %346 = load i32, ptr %345, align 4
  call void (ptr, ...) @cli_dbgmsg(ptr noundef @.str.38, i32 noundef %346)
  br label %347

347:                                              ; preds = %344, %333
  br label %348

348:                                              ; preds = %347
  %349 = load ptr, ptr %13, align 8
  %350 = getelementptr inbounds i8, ptr %349, i64 204
  %351 = load ptr, ptr %9, align 8
  %352 = getelementptr inbounds %struct.dmg_mish_with_stripes, ptr %351, i32 0, i32 1
  store ptr %350, ptr %352, align 8
  store i32 0, ptr %5, align 4
  br label %353

353:                                              ; preds = %348, %327, %53, %44, %37, %28
  %354 = load i32, ptr %5, align 4
  ret i32 %354
}