; Function Attrs: nounwind uwtable
define internal fastcc noundef i32 @dmg_decode_mish(ptr nocapture noundef %0, ptr noundef %1, ptr nocapture noundef %2) unnamed_addr #0 {
  %4 = alloca i64, align 8
  %5 = load i32, ptr %0, align 4
  %6 = add i32 %5, 1
  store i32 %6, ptr %0, align 4
  %7 = tail call i64 @strlen(ptr noundef nonnull dereferenceable(1) %1) #16
  %8 = mul i64 %7, 3
  %9 = lshr i64 %8, 2
  %10 = add nuw nsw i64 %9, 4
  %11 = tail call ptr @cli_max_malloc(i64 noundef %10) #14
  %.not = icmp eq ptr %11, null
  br i1 %.not, label %67, label %12

12:                                               ; preds = %3
  %13 = add nuw nsw i64 %9, 3
  %14 = call i32 @sf_base64decode(ptr noundef %1, i64 noundef %7, ptr noundef nonnull %11, i64 noundef %13, ptr noundef nonnull %4) #14
  %.not65 = icmp eq i32 %14, 0
  br i1 %.not65, label %17, label %15

15:                                               ; preds = %12
  %16 = load i32, ptr %0, align 4
  call void (ptr, ...) @cli_dbgmsg(ptr noundef nonnull @.str.33, i32 noundef %16) #14
  call void @free(ptr noundef nonnull %11) #14
  br label %67

17:                                               ; preds = %12
  %18 = load i64, ptr %4, align 8
  %19 = icmp ult i64 %18, 204
  br i1 %19, label %20, label %22

20:                                               ; preds = %17
  %21 = load i32, ptr %0, align 4
  call void (ptr, ...) @cli_dbgmsg(ptr noundef nonnull @.str.34, i32 noundef %21) #14
  call void @free(ptr noundef nonnull %11) #14
  br label %67

22:                                               ; preds = %17
  %bcmp = call i32 @bcmp(ptr noundef nonnull dereferenceable(4) %11, ptr noundef nonnull dereferenceable(4) @__const.dmg_decode_mish.mish_magic, i64 4)
  %.not66 = icmp eq i32 %bcmp, 0
  br i1 %.not66, label %25, label %23

23:                                               ; preds = %22
  %24 = load i32, ptr %0, align 4
  call void (ptr, ...) @cli_dbgmsg(ptr noundef nonnull @.str.35, i32 noundef %24) #14
  call void @free(ptr noundef nonnull %11) #14
  br label %67

25:                                               ; preds = %22
  store ptr %11, ptr %2, align 8
  %26 = getelementptr inbounds i8, ptr %11, i64 8
  %27 = load i64, ptr %26, align 1
  %28 = call i64 @llvm.bswap.i64(i64 %27)
  store i64 %28, ptr %26, align 1
  %29 = load ptr, ptr %2, align 8
  %30 = getelementptr inbounds i8, ptr %29, i64 16
  %31 = load i64, ptr %30, align 1
  %32 = call i64 @llvm.bswap.i64(i64 %31)
  store i64 %32, ptr %30, align 1
  %33 = load ptr, ptr %2, align 8
  %34 = getelementptr inbounds i8, ptr %33, i64 24
  %35 = load i64, ptr %34, align 1
  %36 = call i64 @llvm.bswap.i64(i64 %35)
  store i64 %36, ptr %34, align 1
  %37 = load ptr, ptr %2, align 8
  %38 = getelementptr inbounds i8, ptr %37, i64 200
  %39 = load i32, ptr %38, align 1
  %40 = call i32 @llvm.bswap.i32(i32 %39)
  store i32 %40, ptr %38, align 1
  %41 = load ptr, ptr %2, align 8
  %42 = getelementptr inbounds i8, ptr %41, i64 8
  %43 = load i64, ptr %42, align 1
  %44 = getelementptr inbounds i8, ptr %41, i64 16
  %45 = load i64, ptr %44, align 1
  %46 = getelementptr inbounds i8, ptr %41, i64 24
  %47 = load i64, ptr %46, align 1
  %48 = getelementptr inbounds i8, ptr %41, i64 200
  %49 = load i32, ptr %48, align 1
  call void (ptr, ...) @cli_dbgmsg(ptr noundef nonnull @.str.36, i64 noundef %43, i64 noundef %45, i64 noundef %47, i32 noundef %49) #14
  %50 = load i64, ptr %4, align 8
  %51 = load ptr, ptr %2, align 8
  %52 = getelementptr inbounds i8, ptr %51, i64 200
  %53 = load i32, ptr %52, align 1
  %54 = zext i32 %53 to i64
  %55 = mul nuw nsw i64 %54, 40
  %56 = add nuw nsw i64 %55, 204
  %57 = icmp ult i64 %50, %56
  br i1 %57, label %58, label %60

58:                                               ; preds = %25
  %59 = load i32, ptr %0, align 4
  call void (ptr, ...) @cli_dbgmsg(ptr noundef nonnull @.str.37, i32 noundef %59) #14
  call void @free(ptr noundef nonnull %11) #14
  store ptr null, ptr %2, align 8
  br label %67

60:                                               ; preds = %25
  %61 = icmp ugt i64 %50, %56
  br i1 %61, label %62, label %64

62:                                               ; preds = %60
  %63 = load i32, ptr %0, align 4
  call void (ptr, ...) @cli_dbgmsg(ptr noundef nonnull @.str.38, i32 noundef %63) #14
  br label %64

64:                                               ; preds = %60, %62
  %65 = getelementptr inbounds i8, ptr %11, i64 204
  %66 = getelementptr inbounds i8, ptr %2, i64 8
  store ptr %65, ptr %66, align 8
  br label %67

67:                                               ; preds = %3, %64, %58, %23, %20, %15
  %.0 = phi i32 [ 26, %15 ], [ 26, %20 ], [ 26, %23 ], [ 26, %58 ], [ 0, %64 ], [ 20, %3 ]
  ret i32 %.0
}